Certificate:
    Data:
        Version: 3 (0x2)
        Serial Number:
            3b:4b:b8:12:81:c0:cc:62:33:0f:61:0c:54:5c:ab:d4
        Signature Algorithm: sha256WithRSAEncryption
        Issuer: CN=Easy-RSA CA
        Validity
            Not Before: May 15 07:39:16 2025 GMT
            Not After : Aug 18 07:39:16 2027 GMT
        Subject: CN=openvpn_client
        Subject Public Key Info:
            Public Key Algorithm: rsaEncryption
                Public-Key: (2048 bit)
                Modulus:
                    00:bb:27:86:ec:8c:4e:31:07:d5:e9:9b:16:92:cc:
                    30:91:95:06:7d:9a:87:52:84:38:9c:78:1f:9e:9c:
                    df:24:b9:e1:ce:e1:60:ec:46:b0:7e:f6:d3:dd:89:
                    e9:10:5b:0e:07:fd:f4:55:4c:09:29:17:f2:e2:9d:
                    ea:87:9e:17:7d:9f:99:85:19:0a:13:7a:27:4a:12:
                    13:f5:6e:a4:c5:97:6e:b4:63:db:42:5e:83:b0:0b:
                    23:1a:a2:1b:c5:ec:1d:88:d0:56:2e:9f:f5:49:1f:
                    a7:fd:c1:fc:0a:ba:2d:f2:7d:01:af:0b:ff:39:8c:
                    b8:04:6a:a2:e6:8f:50:6b:a1:08:25:a6:64:65:4e:
                    b7:7d:0d:97:48:ef:69:af:e7:50:78:97:1c:1f:8e:
                    24:3a:ba:bc:6b:1e:69:df:cf:9a:1c:2c:85:23:14:
                    6a:5d:76:28:78:73:6b:8d:07:fe:fc:92:fc:21:16:
                    a3:a7:f9:cf:76:39:ff:60:a8:3b:c7:71:0f:b2:47:
                    97:68:1a:bb:d2:ba:a8:be:9f:ca:60:22:d8:2b:ab:
                    ee:c4:cb:3c:88:17:59:a0:79:f4:0a:32:b0:63:1e:
                    39:65:65:05:ab:48:31:13:11:f2:79:22:74:1a:ae:
                    00:88:98:c7:0c:93:38:a1:20:c6:b7:ff:f0:42:b2:
                    d2:b1
                Exponent: 65537 (0x10001)
        X509v3 extensions:
            X509v3 Basic Constraints: 
                CA:FALSE
            X509v3 Subject Key Identifier: 
                09:3B:8A:64:5B:AC:63:1C:4B:B2:C9:E0:6E:A9:67:45:FC:E0:CA:CD
            X509v3 Authority Key Identifier: 
                keyid:0D:EE:E5:B0:E6:6A:F0:0B:5A:B3:62:C0:E6:4A:D7:DE:79:D1:1C:C4
                DirName:/CN=Easy-RSA CA
                serial:7E:37:B9:20:70:A4:F1:7F:F1:5F:E7:DC:16:2A:BE:87:06:20:50:93
            X509v3 Extended Key Usage: 
                TLS Web Client Authentication
            X509v3 Key Usage: 
                Digital Signature
    Signature Algorithm: sha256WithRSAEncryption
    Signature Value:
        69:b6:a9:f5:ca:3a:aa:42:d4:65:da:2e:b8:ae:ca:cf:41:6d:
        7a:29:db:b9:7a:e8:53:5c:e2:fd:5a:e0:86:b2:f6:c0:f4:ce:
        40:fe:37:b3:1a:36:7a:8f:34:85:9d:03:c4:29:48:83:de:13:
        92:55:2f:43:bb:e4:3f:09:f9:40:2f:a5:07:b9:cf:74:44:65:
        68:2d:ee:39:33:2d:de:22:9d:c3:20:be:64:4a:fc:87:ab:78:
        62:8a:97:26:93:d4:92:a3:7e:39:f6:57:ec:71:5b:76:3e:7f:
        47:75:ab:80:34:ab:1e:ae:21:22:01:13:67:33:b6:37:a7:84:
        5e:cb:a7:d8:12:08:cf:7f:8b:ce:48:dc:85:ec:63:70:a8:ae:
        0a:4c:3f:d9:fb:52:09:c4:eb:94:37:e8:9c:30:75:10:a5:0a:
        ec:01:33:3e:c0:df:ba:9a:77:33:bb:08:66:59:b4:f9:78:9a:
        3b:d1:17:5a:d6:f3:ce:e0:5b:86:57:a0:40:dd:eb:b8:1f:46:
        aa:74:30:2d:51:c9:39:7a:f1:39:55:5b:69:44:e4:3e:b7:d6:
        8d:92:1a:cb:3c:a4:b6:d2:88:7b:0a:a4:2b:33:bc:cf:62:33:
        c1:98:b9:4c:fe:0d:81:7f:8c:56:5e:ea:28:29:42:f9:f8:5a:
        54:fa:69:a9
-----BEGIN CERTIFICATE-----
MIIDXDCCAkSgAwIBAgIQO0u4EoHAzGIzD2EMVFyr1DANBgkqhkiG9w0BAQsFADAW
MRQwEgYDVQQDDAtFYXN5LVJTQSBDQTAeFw0yNTA1MTUwNzM5MTZaFw0yNzA4MTgw
NzM5MTZaMBkxFzAVBgNVBAMMDm9wZW52cG5fY2xpZW50MIIBIjANBgkqhkiG9w0B
AQEFAAOCAQ8AMIIBCgKCAQEAuyeG7IxOMQfV6ZsWkswwkZUGfZqHUoQ4nHgfnpzf
JLnhzuFg7EawfvbT3YnpEFsOB/30VUwJKRfy4p3qh54XfZ+ZhRkKE3onShIT9W6k
xZdutGPbQl6DsAsjGqIbxewdiNBWLp/1SR+n/cH8Crot8n0Brwv/OYy4BGqi5o9Q
a6EIJaZkZU63fQ2XSO9pr+dQeJccH44kOrq8ax5p38+aHCyFIxRqXXYoeHNrjQf+
/JL8IRajp/nPdjn/YKg7x3EPskeXaBq70rqovp/KYCLYK6vuxMs8iBdZoHn0CjKw
Yx45ZWUFq0gxExHyeSJ0Gq4AiJjHDJM4oSDGt//wQrLSsQIDAQABo4GiMIGfMAkG
A1UdEwQCMAAwHQYDVR0OBBYEFAk7imRbrGMcS7LJ4G6pZ0X84MrNMFEGA1UdIwRK
MEiAFA3u5bDmavALWrNiwOZK19550RzEoRqkGDAWMRQwEgYDVQQDDAtFYXN5LVJT
QSBDQYIUfje5IHCk8X/xX+fcFiq+hwYgUJMwEwYDVR0lBAwwCgYIKwYBBQUHAwIw
CwYDVR0PBAQDAgeAMA0GCSqGSIb3DQEBCwUAA4IBAQBptqn1yjqqQtRl2i64rsrP
QW16Kdu5euhTXOL9WuCGsvbA9M5A/jezGjZ6jzSFnQPEKUiD3hOSVS9Du+Q/CflA
L6UHuc90RGVoLe45My3eIp3DIL5kSvyHq3hiipcmk9SSo3459lfscVt2Pn9HdauA
NKseriEiARNnM7Y3p4Rey6fYEgjPf4vOSNyF7GNwqK4KTD/Z+1IJxOuUN+icMHUQ
pQrsATM+wN+6mnczuwhmWbT5eJo70Rda1vPO4FuGV6BA3eu4H0aqdDAtUck5evE5
VVtpROQ+t9aNkhrLPKS20oh7CqQrM7zPYjPBmLlM/g2Bf4xWXuooKUL5+FpU+mmp
-----END CERTIFICATE-----
